target datalayout = "e-m:e-p270:32:32-p271:32:32-p272:64:64-i64:64-i128:128-f80:128-n8:16:32:64-S128"
target triple = "x86_64-pc-linux-gnu"

%"class.llvm::function_ref.47" = type { ptr, i64 }
%class.anon = type { ptr }

; Function Attrs: mustprogress nounwind uwtable
define linkonce_odr hidden void @_ZNK4llvm12function_refIFvN5clang5index10SymbolRoleEEEclES3_(ptr noundef nonnull align 8 dereferenceable(16) %0, i32 noundef %1) #0 comdat align 2 {
  %3 = alloca ptr, align 8
  %4 = alloca i32, align 4
  store ptr %0, ptr %3, align 8
  store i32 %1, ptr %4, align 4
  %5 = load ptr, ptr %3, align 8
  %6 = getelementptr inbounds nuw %"class.llvm::function_ref.47", ptr %5, i32 0, i32 0
  %7 = load ptr, ptr %6, align 8
  %8 = getelementptr inbounds nuw %"class.llvm::function_ref.47", ptr %5, i32 0, i32 1
  %9 = load i64, ptr %8, align 8
  %10 = load i32, ptr %4, align 4
  call void %7(i64 noundef %9, i32 noundef %10)
  ret void
}

; Function Attrs: mustprogress nounwind uwtable
define internal noundef zeroext i1 @"_ZZN5clang5index22applyForEachSymbolRoleEjN4llvm12function_refIFvNS0_10SymbolRoleEEEEENK3$_0clES3_"(ptr noundef nonnull align 8 dereferenceable(8) %0, i32 noundef %1) #0 align 2 {
  %3 = alloca ptr, align 8
  %4 = alloca i32, align 4
  store ptr %0, ptr %3, align 8
  store i32 %1, ptr %4, align 4
  %5 = load ptr, ptr %3, align 8
  %6 = getelementptr inbounds nuw %class.anon, ptr %5, i32 0, i32 0
  %7 = load ptr, ptr %6, align 8
  %8 = load i32, ptr %4, align 4
  call void @_ZNK4llvm12function_refIFvN5clang5index10SymbolRoleEEEclES3_(ptr noundef nonnull align 8 dereferenceable(16) %7, i32 noundef %8)
  ret i1 true
}

; Function Attrs: mustprogress nounwind uwtable
define internal noundef zeroext i1 @"_ZN4llvm12function_refIFbN5clang5index10SymbolRoleEEE11callback_fnIZNS2_22applyForEachSymbolRoleEjNS0_IFvS3_EEEE3$_0EEblS3_"(i64 noundef %0, i32 noundef %1) #0 align 2 {
  %3 = alloca i64, align 8
  %4 = alloca i32, align 4
  store i64 %0, ptr %3, align 8
  store i32 %1, ptr %4, align 4
  %5 = load i64, ptr %3, align 8
  %6 = inttoptr i64 %5 to ptr
  %7 = load i32, ptr %4, align 4
  %8 = call noundef zeroext i1 @"_ZZN5clang5index22applyForEachSymbolRoleEjN4llvm12function_refIFvNS0_10SymbolRoleEEEEENK3$_0clES3_"(ptr noundef nonnull align 8 dereferenceable(8) %6, i32 noundef %7)
  ret i1 %8
}