; Function Attrs: mustprogress nounwind uwtable
define internal noundef zeroext i1 @"_ZN4llvm12function_refIFbN5clang5index10SymbolRoleEEE11callback_fnIZNS2_22applyForEachSymbolRoleEjNS0_IFvS3_EEEE3$_0EEblS3_"(i64 noundef %0, i32 noundef %1) #0 align 2 {
  %3 = inttoptr i64 %0 to ptr
  %.val = load ptr, ptr %3, align 8
  %.val.val = load ptr, ptr %.val, align 8
  %4 = getelementptr i8, ptr %.val, i64 8
  %.val.val2 = load i64, ptr %4, align 8
  tail call void %.val.val(i64 noundef %.val.val2, i32 noundef %1) #6
  ret i1 true
}